; Function Attrs: nounwind uwtable
define dso_local void @lua_rawseti(ptr noundef %0, i32 noundef %1, i32 noundef %2) local_unnamed_addr #1 {
  %4 = icmp sgt i32 %1, 0
  br i1 %4, label %5, label %19

5:                                                ; preds = %3
  %6 = getelementptr inbounds nuw i8, ptr %0, i64 32
  %7 = load ptr, ptr %6, align 8, !tbaa !15
  %8 = zext nneg i32 %1 to i64
  %9 = getelementptr %union.TValue, ptr %7, i64 %8
  %10 = getelementptr i8, ptr %9, i64 -8
  %11 = getelementptr inbounds nuw i8, ptr %0, i64 40
  %12 = load ptr, ptr %11, align 8, !tbaa !14
  %13 = icmp ult ptr %10, %12
  br i1 %13, label %index2adr.exit, label %14

14:                                               ; preds = %5
  %15 = getelementptr inbounds nuw i8, ptr %0, i64 16
  %16 = load i64, ptr %15, align 8, !tbaa !21
  %17 = inttoptr i64 %16 to ptr
  %18 = getelementptr inbounds nuw i8, ptr %17, i64 248
  br label %index2adr.exit

19:                                               ; preds = %3
  %20 = icmp sgt i32 %1, -10000
  br i1 %20, label %21, label %26

21:                                               ; preds = %19
  %22 = getelementptr inbounds nuw i8, ptr %0, i64 40
  %23 = load ptr, ptr %22, align 8, !tbaa !14
  %24 = sext i32 %1 to i64
  %25 = getelementptr inbounds %union.TValue, ptr %23, i64 %24
  br label %index2adr.exit

26:                                               ; preds = %19
  switch i32 %1, label %40 [
    i32 -10002, label %27
    i32 -10000, label %35
  ]

27:                                               ; preds = %26
  %28 = getelementptr inbounds nuw i8, ptr %0, i64 16
  %29 = load i64, ptr %28, align 8, !tbaa !21
  %30 = inttoptr i64 %29 to ptr
  %31 = getelementptr inbounds nuw i8, ptr %30, i64 232
  %32 = getelementptr inbounds nuw i8, ptr %0, i64 72
  %33 = load i64, ptr %32, align 8, !tbaa !24
  %34 = or i64 %33, -1688849860263936
  store i64 %34, ptr %31, align 8, !tbaa !17
  br label %index2adr.exit

35:                                               ; preds = %26
  %36 = getelementptr inbounds nuw i8, ptr %0, i64 16
  %37 = load i64, ptr %36, align 8, !tbaa !21
  %38 = inttoptr i64 %37 to ptr
  %39 = getelementptr inbounds nuw i8, ptr %38, i64 272
  br label %index2adr.exit

40:                                               ; preds = %26
  %41 = getelementptr inbounds nuw i8, ptr %0, i64 32
  %42 = load ptr, ptr %41, align 8, !tbaa !15
  %43 = getelementptr inbounds i8, ptr %42, i64 -16
  %44 = load i64, ptr %43, align 8, !tbaa !17
  %45 = and i64 %44, 140737488355327
  %46 = inttoptr i64 %45 to ptr
  %47 = icmp eq i32 %1, -10001
  br i1 %47, label %48, label %56

48:                                               ; preds = %40
  %49 = getelementptr inbounds nuw i8, ptr %0, i64 16
  %50 = load i64, ptr %49, align 8, !tbaa !21
  %51 = inttoptr i64 %50 to ptr
  %52 = getelementptr inbounds nuw i8, ptr %51, i64 232
  %53 = getelementptr inbounds nuw i8, ptr %46, i64 16
  %54 = load i64, ptr %53, align 8, !tbaa !17
  %55 = or i64 %54, -1688849860263936
  store i64 %55, ptr %52, align 8, !tbaa !17
  br label %index2adr.exit

56:                                               ; preds = %40
  %57 = sub nuw nsw i32 -10002, %1
  %58 = getelementptr inbounds nuw i8, ptr %46, i64 11
  %59 = load i8, ptr %58, align 1, !tbaa !17
  %60 = zext i8 %59 to i32
  %.not.i = icmp samesign ugt i32 %57, %60
  br i1 %.not.i, label %66, label %61

61:                                               ; preds = %56
  %62 = getelementptr inbounds nuw i8, ptr %46, i64 48
  %63 = sub nsw i32 -10003, %1
  %64 = sext i32 %63 to i64
  %65 = getelementptr inbounds [1 x %union.TValue], ptr %62, i64 0, i64 %64
  br label %index2adr.exit

66:                                               ; preds = %56
  %67 = getelementptr inbounds nuw i8, ptr %0, i64 16
  %68 = load i64, ptr %67, align 8, !tbaa !21
  %69 = inttoptr i64 %68 to ptr
  %70 = getelementptr inbounds nuw i8, ptr %69, i64 248
  br label %index2adr.exit

index2adr.exit:                                   ; preds = %5, %14, %21, %27, %35, %48, %61, %66
  %.0.i = phi ptr [ %25, %21 ], [ %31, %27 ], [ %39, %35 ], [ %18, %14 ], [ %10, %5 ], [ %52, %48 ], [ %65, %61 ], [ %70, %66 ]
  %71 = load i64, ptr %.0.i, align 8, !tbaa !17
  %72 = and i64 %71, 140737488355327
  %73 = inttoptr i64 %72 to ptr
  %74 = getelementptr inbounds nuw i8, ptr %73, i64 48
  %75 = load i32, ptr %74, align 8, !tbaa !54
  %76 = icmp ult i32 %2, %75
  br i1 %76, label %77, label %83

77:                                               ; preds = %index2adr.exit
  %78 = getelementptr inbounds nuw i8, ptr %73, i64 16
  %79 = load i64, ptr %78, align 8, !tbaa !55
  %80 = inttoptr i64 %79 to ptr
  %81 = sext i32 %2 to i64
  %82 = getelementptr inbounds %union.TValue, ptr %80, i64 %81
  br label %85

83:                                               ; preds = %index2adr.exit
  %84 = tail call ptr @lj_tab_setinth(ptr noundef nonnull %0, ptr noundef nonnull %73, i32 noundef %2) #13
  br label %85

85:                                               ; preds = %83, %77
  %86 = phi ptr [ %82, %77 ], [ %84, %83 ]
  %87 = getelementptr inbounds nuw i8, ptr %0, i64 40
  %88 = load ptr, ptr %87, align 8, !tbaa !14
  %89 = getelementptr inbounds i8, ptr %88, i64 -8
  %90 = load i64, ptr %89, align 8, !tbaa !17
  store i64 %90, ptr %86, align 8, !tbaa !17
  %91 = ashr i64 %90, 47
  %92 = trunc nsw i64 %91 to i32
  %93 = add nsw i32 %92, 13
  %94 = icmp ult i32 %93, 9
  br i1 %94, label %95, label %113

95:                                               ; preds = %85
  %96 = and i64 %90, 140737488355327
  %97 = inttoptr i64 %96 to ptr
  %98 = getelementptr inbounds nuw i8, ptr %97, i64 8
  %99 = load i8, ptr %98, align 8, !tbaa !17
  %100 = and i8 %99, 3
  %.not = icmp eq i8 %100, 0
  br i1 %.not, label %113, label %101

101:                                              ; preds = %95
  %102 = getelementptr inbounds nuw i8, ptr %73, i64 8
  %103 = load i8, ptr %102, align 8, !tbaa !17
  %104 = and i8 %103, 4
  %.not19 = icmp eq i8 %104, 0
  br i1 %.not19, label %113, label %105

105:                                              ; preds = %101
  %106 = getelementptr inbounds nuw i8, ptr %0, i64 16
  %107 = load i64, ptr %106, align 8, !tbaa !21
  %108 = inttoptr i64 %107 to ptr
  %109 = and i8 %103, -5
  store i8 %109, ptr %102, align 8, !tbaa !17
  %110 = getelementptr inbounds nuw i8, ptr %108, i64 64
  %111 = load i64, ptr %110, align 8, !tbaa !46
  %112 = getelementptr inbounds nuw i8, ptr %73, i64 24
  store i64 %111, ptr %112, align 8, !tbaa !47
  store i64 %72, ptr %110, align 8, !tbaa !46
  br label %113

113:                                              ; preds = %105, %101, %95, %85
  store ptr %89, ptr %87, align 8, !tbaa !14
  ret void
}